#include <math.h>
#include <stdio.h>
#include <stdlib.h>
#include <string.h>
#include <iostream>
using namespace std;


int p,q;
int flag;
char input[100] ;
int judge(int i,int l)
{
    flag = 0 ;
    for (p=i;p<(l/2+i);p++)
       {
           if(input[p] == input[l+2*i-p-1])
                flag++;
       }
    if(flag == l/2)  return 1;
    else return 0;
}
int main()
{
    cin>>input;
    int length = strlen(input) ;
    int k , d ,w ;
    for( d=2;d<=length;d++)
    for (k=0;k<length-1;k++)

           {
               if(judge(k,d)==1)
                   {
                       for (w=k;w<k+d;w++)
                          {
                              cout<<input[w];
                          }
                          cout<<endl;
                   }
           }

}
